target datalayout = "e-m:e-p270:32:32-p271:32:32-p272:64:64-i64:64-i128:128-f80:128-n8:16:32:64-S128"
target triple = "x86_64-pc-linux-gnu"

; Function Attrs: nounwind sspstrong uwtable
define internal zeroext i1 @pm_encoding_ascii_isupper_char(ptr noundef %0, i64 noundef %1) #0 {
  %3 = alloca ptr, align 8
  %4 = alloca i64, align 8
  store ptr %0, ptr %3, align 8, !tbaa !7
  store i64 %1, ptr %4, align 8, !tbaa !12
  %5 = load ptr, ptr %3, align 8, !tbaa !7
  %6 = load i8, ptr %5, align 1, !tbaa !16
  %7 = zext i8 %6 to i64
  %8 = getelementptr [256 x i8], ptr @pm_encoding_ascii_table, i64 0, i64 %7
  %9 = load i8, ptr %8, align 1, !tbaa !16
  %10 = zext i8 %9 to i32
  %11 = and i32 %10, 4
  %12 = icmp ne i32 %11, 0
  ret i1 %12
}

; Function Attrs: nounwind sspstrong uwtable
define internal i64 @pm_encoding_shift_jis_char_width(ptr noundef %0, i64 noundef %1) #0 {
  %3 = alloca i64, align 8
  %4 = alloca ptr, align 8
  %5 = alloca i64, align 8
  store ptr %0, ptr %4, align 8, !tbaa !7
  store i64 %1, ptr %5, align 8, !tbaa !12
  %6 = load ptr, ptr %4, align 8, !tbaa !7
  %7 = getelementptr i8, ptr %6, i64 0
  %8 = load i8, ptr %7, align 1, !tbaa !16
  %9 = zext i8 %8 to i32
  %10 = icmp slt i32 %9, 128
  br i1 %10, label %23, label %11

11:                                               ; preds = %2
  %12 = load ptr, ptr %4, align 8, !tbaa !7
  %13 = getelementptr i8, ptr %12, i64 0
  %14 = load i8, ptr %13, align 1, !tbaa !16
  %15 = zext i8 %14 to i32
  %16 = icmp sge i32 %15, 161
  br i1 %16, label %17, label %24

17:                                               ; preds = %11
  %18 = load ptr, ptr %4, align 8, !tbaa !7
  %19 = getelementptr i8, ptr %18, i64 0
  %20 = load i8, ptr %19, align 1, !tbaa !16
  %21 = zext i8 %20 to i32
  %22 = icmp sle i32 %21, 223
  br i1 %22, label %23, label %24

23:                                               ; preds = %17, %2
  store i64 1, ptr %3, align 8
  br label %71

24:                                               ; preds = %17, %11
  %25 = load i64, ptr %5, align 8, !tbaa !12
  %26 = icmp sgt i64 %25, 1
  br i1 %26, label %27, label %70

27:                                               ; preds = %24
  %28 = load ptr, ptr %4, align 8, !tbaa !7
  %29 = getelementptr i8, ptr %28, i64 0
  %30 = load i8, ptr %29, align 1, !tbaa !16
  %31 = zext i8 %30 to i32
  %32 = icmp sge i32 %31, 129
  br i1 %32, label %33, label %39

33:                                               ; preds = %27
  %34 = load ptr, ptr %4, align 8, !tbaa !7
  %35 = getelementptr i8, ptr %34, i64 0
  %36 = load i8, ptr %35, align 1, !tbaa !16
  %37 = zext i8 %36 to i32
  %38 = icmp sle i32 %37, 159
  br i1 %38, label %51, label %39

39:                                               ; preds = %33, %27
  %40 = load ptr, ptr %4, align 8, !tbaa !7
  %41 = getelementptr i8, ptr %40, i64 0
  %42 = load i8, ptr %41, align 1, !tbaa !16
  %43 = zext i8 %42 to i32
  %44 = icmp sge i32 %43, 224
  br i1 %44, label %45, label %70

45:                                               ; preds = %39
  %46 = load ptr, ptr %4, align 8, !tbaa !7
  %47 = getelementptr i8, ptr %46, i64 0
  %48 = load i8, ptr %47, align 1, !tbaa !16
  %49 = zext i8 %48 to i32
  %50 = icmp sle i32 %49, 252
  br i1 %50, label %51, label %70

51:                                               ; preds = %45, %33
  %52 = load ptr, ptr %4, align 8, !tbaa !7
  %53 = getelementptr i8, ptr %52, i64 1
  %54 = load i8, ptr %53, align 1, !tbaa !16
  %55 = zext i8 %54 to i32
  %56 = icmp sge i32 %55, 64
  br i1 %56, label %57, label %70

57:                                               ; preds = %51
  %58 = load ptr, ptr %4, align 8, !tbaa !7
  %59 = getelementptr i8, ptr %58, i64 1
  %60 = load i8, ptr %59, align 1, !tbaa !16
  %61 = zext i8 %60 to i32
  %62 = icmp sle i32 %61, 252
  br i1 %62, label %63, label %70

63:                                               ; preds = %57
  %64 = load ptr, ptr %4, align 8, !tbaa !7
  %65 = getelementptr i8, ptr %64, i64 1
  %66 = load i8, ptr %65, align 1, !tbaa !16
  %67 = zext i8 %66 to i32
  %68 = icmp ne i32 %67, 127
  br i1 %68, label %69, label %70

69:                                               ; preds = %63
  store i64 2, ptr %3, align 8
  br label %71

70:                                               ; preds = %63, %57, %51, %45, %39, %24
  store i64 0, ptr %3, align 8
  br label %71

71:                                               ; preds = %70, %69, %23
  %72 = load i64, ptr %3, align 8
  ret i64 %72
}

; Function Attrs: nounwind sspstrong uwtable
define internal zeroext i1 @pm_encoding_shift_jis_isupper_char(ptr noundef %0, i64 noundef %1) #0 {
  %3 = alloca i1, align 1
  %4 = alloca ptr, align 8
  %5 = alloca i64, align 8
  %6 = alloca i64, align 8
  %7 = alloca i32, align 4
  store ptr %0, ptr %4, align 8, !tbaa !7
  store i64 %1, ptr %5, align 8, !tbaa !12
  call void @llvm.lifetime.start.p0(i64 8, ptr %6) #3
  %8 = load ptr, ptr %4, align 8, !tbaa !7
  %9 = load i64, ptr %5, align 8, !tbaa !12
  %10 = call i64 @pm_encoding_shift_jis_char_width(ptr noundef %8, i64 noundef %9)
  store i64 %10, ptr %6, align 8, !tbaa !12
  %11 = load i64, ptr %6, align 8, !tbaa !12
  %12 = icmp eq i64 %11, 1
  br i1 %12, label %13, label %17

13:                                               ; preds = %2
  %14 = load ptr, ptr %4, align 8, !tbaa !7
  %15 = load i64, ptr %5, align 8, !tbaa !12
  %16 = call zeroext i1 @pm_encoding_ascii_isupper_char(ptr noundef %14, i64 noundef %15)
  store i1 %16, ptr %3, align 1
  store i32 1, ptr %7, align 4
  br label %83

17:                                               ; preds = %2
  %18 = load i64, ptr %6, align 8, !tbaa !12
  %19 = icmp eq i64 %18, 2
  br i1 %19, label %20, label %80

20:                                               ; preds = %17
  %21 = load ptr, ptr %4, align 8, !tbaa !7
  %22 = getelementptr i8, ptr %21, i64 0
  %23 = load i8, ptr %22, align 1, !tbaa !16
  %24 = zext i8 %23 to i32
  %25 = icmp eq i32 %24, 130
  br i1 %25, label %26, label %38

26:                                               ; preds = %20
  %27 = load ptr, ptr %4, align 8, !tbaa !7
  %28 = getelementptr i8, ptr %27, i64 1
  %29 = load i8, ptr %28, align 1, !tbaa !16
  %30 = zext i8 %29 to i32
  %31 = icmp sge i32 %30, 96
  br i1 %31, label %32, label %38

32:                                               ; preds = %26
  %33 = load ptr, ptr %4, align 8, !tbaa !7
  %34 = getelementptr i8, ptr %33, i64 1
  %35 = load i8, ptr %34, align 1, !tbaa !16
  %36 = zext i8 %35 to i32
  %37 = icmp sle i32 %36, 121
  br i1 %37, label %78, label %38

38:                                               ; preds = %32, %26, %20
  %39 = load ptr, ptr %4, align 8, !tbaa !7
  %40 = getelementptr i8, ptr %39, i64 0
  %41 = load i8, ptr %40, align 1, !tbaa !16
  %42 = zext i8 %41 to i32
  %43 = icmp eq i32 %42, 131
  br i1 %43, label %44, label %56

44:                                               ; preds = %38
  %45 = load ptr, ptr %4, align 8, !tbaa !7
  %46 = getelementptr i8, ptr %45, i64 1
  %47 = load i8, ptr %46, align 1, !tbaa !16
  %48 = zext i8 %47 to i32
  %49 = icmp sge i32 %48, 159
  br i1 %49, label %50, label %56

50:                                               ; preds = %44
  %51 = load ptr, ptr %4, align 8, !tbaa !7
  %52 = getelementptr i8, ptr %51, i64 1
  %53 = load i8, ptr %52, align 1, !tbaa !16
  %54 = zext i8 %53 to i32
  %55 = icmp sle i32 %54, 182
  br i1 %55, label %78, label %56

56:                                               ; preds = %50, %44, %38
  %57 = load ptr, ptr %4, align 8, !tbaa !7
  %58 = getelementptr i8, ptr %57, i64 0
  %59 = load i8, ptr %58, align 1, !tbaa !16
  %60 = zext i8 %59 to i32
  %61 = icmp eq i32 %60, 132
  br i1 %61, label %62, label %76

62:                                               ; preds = %56
  %63 = load ptr, ptr %4, align 8, !tbaa !7
  %64 = getelementptr i8, ptr %63, i64 1
  %65 = load i8, ptr %64, align 1, !tbaa !16
  %66 = zext i8 %65 to i32
  %67 = icmp sge i32 %66, 64
  br i1 %67, label %68, label %74

68:                                               ; preds = %62
  %69 = load ptr, ptr %4, align 8, !tbaa !7
  %70 = getelementptr i8, ptr %69, i64 1
  %71 = load i8, ptr %70, align 1, !tbaa !16
  %72 = zext i8 %71 to i32
  %73 = icmp sle i32 %72, 96
  br label %74

74:                                               ; preds = %68, %62
  %75 = phi i1 [ false, %62 ], [ %73, %68 ]
  br label %76

76:                                               ; preds = %74, %56
  %77 = phi i1 [ false, %56 ], [ %75, %74 ]
  br label %78

78:                                               ; preds = %76, %50, %32
  %79 = phi i1 [ true, %50 ], [ true, %32 ], [ %77, %76 ]
  store i1 %79, ptr %3, align 1
  store i32 1, ptr %7, align 4
  br label %83

80:                                               ; preds = %17
  %81 = load i64, ptr %6, align 8, !tbaa !12
  %82 = icmp ne i64 %81, 0
  store i1 %82, ptr %3, align 1
  store i32 1, ptr %7, align 4
  br label %83

83:                                               ; preds = %80, %78, %13
  call void @llvm.lifetime.end.p0(i64 8, ptr %6) #3
  %84 = load i1, ptr %3, align 1
  ret i1 %84
}