; Function Attrs: mustprogress nofree norecurse nosync nounwind sspstrong willreturn memory(argmem: read) uwtable
define internal zeroext i1 @pm_encoding_shift_jis_isupper_char(ptr noundef readonly captures(none) %0, i64 noundef %1) #2 {
  %3 = load i8, ptr %0, align 1, !tbaa !7
  %4 = icmp sgt i8 %3, -1
  %5 = add nsw i8 %3, 95
  %or.cond.i = icmp ult i8 %5, 63
  %or.cond19.i = select i1 %4, i1 true, i1 %or.cond.i
  br i1 %or.cond19.i, label %16, label %6

6:                                                ; preds = %2
  %7 = icmp sgt i64 %1, 1
  br i1 %7, label %8, label %switch.edge

8:                                                ; preds = %6
  %9 = icmp ne i8 %3, -128
  %10 = icmp samesign ult i8 %3, -96
  %or.cond15.i = and i1 %9, %10
  %11 = add nsw i8 %3, 32
  %or.cond16.i = icmp ult i8 %11, 29
  %or.cond20.i = select i1 %or.cond15.i, i1 true, i1 %or.cond16.i
  br i1 %or.cond20.i, label %12, label %switch.edge

12:                                               ; preds = %8
  %13 = getelementptr i8, ptr %0, i64 1
  %14 = load i8, ptr %13, align 1, !tbaa !7
  %15 = add i8 %14, 3
  %or.cond17.i = icmp ult i8 %15, 67
  %.not.i = icmp eq i8 %14, 127
  %or.cond18.i = or i1 %.not.i, %or.cond17.i
  br i1 %or.cond18.i, label %switch.edge, label %22

16:                                               ; preds = %2
  %17 = zext i8 %3 to i64
  %18 = getelementptr [256 x i8], ptr @pm_encoding_windows_874_table, i64 0, i64 %17
  %19 = load i8, ptr %18, align 1, !tbaa !7
  %20 = and i8 %19, 4
  %21 = icmp ne i8 %20, 0
  br label %switch.edge

22:                                               ; preds = %12
  switch i8 %3, label %switch.edge [
    i8 -126, label %23
    i8 -125, label %25
    i8 -124, label %27
  ]

23:                                               ; preds = %22
  %24 = add i8 %14, -96
  %or.cond = icmp ult i8 %24, 26
  br i1 %or.cond, label %switch.edge, label %.thread24

25:                                               ; preds = %22
  %26 = add i8 %14, 97
  %or.cond20 = icmp ult i8 %26, 24
  br i1 %or.cond20, label %switch.edge, label %.thread24

.thread24:                                        ; preds = %25, %23
  br label %switch.edge

27:                                               ; preds = %22
  %28 = add i8 %14, -64
  %spec.select = icmp ult i8 %28, 33
  br label %switch.edge

switch.edge:                                      ; preds = %22, %.thread24, %12, %8, %6, %27, %23, %25, %16
  %.0 = phi i1 [ %21, %16 ], [ true, %23 ], [ true, %25 ], [ %spec.select, %27 ], [ false, %6 ], [ false, %8 ], [ false, %12 ], [ false, %.thread24 ], [ false, %22 ]
  ret i1 %.0
}